target datalayout = "e-m:e-p270:32:32-p271:32:32-p272:64:64-i64:64-i128:128-f80:128-n8:16:32:64-S128"
target triple = "x86_64-pc-linux-gnu"

@g_ascii_table = external constant ptr, align 8

; Function Attrs: nounwind null_pointer_is_valid sspstrong uwtable
define zeroext i1 @isprint_string(ptr noundef %0) #8 {
  %2 = alloca i1, align 1
  %3 = alloca ptr, align 8
  %4 = alloca i32, align 4
  %5 = alloca i32, align 4
  store ptr %0, ptr %3, align 8
  call void @llvm.lifetime.start.p0(i64 4, ptr %4) #15
  store i32 0, ptr %4, align 4
  br label %6

6:                                                ; preds = %29, %1
  %7 = load ptr, ptr %3, align 8
  %8 = load i32, ptr %4, align 4
  %9 = zext i32 %8 to i64
  %10 = getelementptr i8, ptr %7, i64 %9
  %11 = load i8, ptr %10, align 1
  %12 = sext i8 %11 to i32
  %13 = icmp ne i32 %12, 0
  br i1 %13, label %14, label %32

14:                                               ; preds = %6
  %15 = load ptr, ptr @g_ascii_table, align 8
  %16 = load ptr, ptr %3, align 8
  %17 = load i32, ptr %4, align 4
  %18 = zext i32 %17 to i64
  %19 = getelementptr i8, ptr %16, i64 %18
  %20 = load i8, ptr %19, align 1
  %21 = zext i8 %20 to i64
  %22 = getelementptr i16, ptr %15, i64 %21
  %23 = load i16, ptr %22, align 2
  %24 = zext i16 %23 to i32
  %25 = and i32 %24, 64
  %26 = icmp ne i32 %25, 0
  br i1 %26, label %28, label %27

27:                                               ; preds = %14
  store i1 false, ptr %2, align 1
  store i32 1, ptr %5, align 4
  br label %33

28:                                               ; preds = %14
  br label %29

29:                                               ; preds = %28
  %30 = load i32, ptr %4, align 4
  %31 = add i32 %30, 1
  store i32 %31, ptr %4, align 4
  br label %6, !llvm.loop !19

32:                                               ; preds = %6
  store i1 true, ptr %2, align 1
  store i32 1, ptr %5, align 4
  br label %33

33:                                               ; preds = %32, %27
  call void @llvm.lifetime.end.p0(i64 4, ptr %4) #15
  %34 = load i1, ptr %2, align 1
  ret i1 %34
}