; Function Attrs: nofree norecurse nosync nounwind null_pointer_is_valid sspstrong memory(read, inaccessiblemem: none) uwtable
define noundef zeroext i1 @isprint_string(ptr noundef readonly captures(none) %0) local_unnamed_addr #9 {
  %2 = load i8, ptr %0, align 1
  %.not7 = icmp eq i8 %2, 0
  br i1 %.not7, label %._crit_edge, label %.lr.ph

.lr.ph:                                           ; preds = %1
  %3 = load ptr, ptr @g_ascii_table, align 8
  br label %9

4:                                                ; preds = %9
  %5 = add i32 %.08, 1
  %6 = zext i32 %5 to i64
  %7 = getelementptr i8, ptr %0, i64 %6
  %8 = load i8, ptr %7, align 1
  %.not = icmp eq i8 %8, 0
  br i1 %.not, label %._crit_edge, label %9, !llvm.loop !19

9:                                                ; preds = %.lr.ph, %4
  %10 = phi i8 [ %2, %.lr.ph ], [ %8, %4 ]
  %.08 = phi i32 [ 0, %.lr.ph ], [ %5, %4 ]
  %11 = zext i8 %10 to i64
  %12 = getelementptr i16, ptr %3, i64 %11
  %13 = load i16, ptr %12, align 2
  %14 = and i16 %13, 64
  %.not6.not.not = icmp ne i16 %14, 0
  br i1 %.not6.not.not, label %4, label %._crit_edge

._crit_edge:                                      ; preds = %9, %4, %1
  %.not.lcssa = phi i1 [ true, %1 ], [ %.not6.not.not, %4 ], [ %.not6.not.not, %9 ]
  ret i1 %.not.lcssa
}